; Function Attrs: mustprogress uwtable
define hidden void @_ZN4lean8for_eachERKNS_4exprEOSt8functionIFbS2_EE(ptr noundef nonnull align 8 dereferenceable(8) %0, ptr noundef nonnull align 8 dereferenceable(32) %1) local_unnamed_addr #0 personality ptr @__gxx_personality_v0 {
  %3 = alloca %"class.lean::for_each_fn", align 8
  call void @llvm.lifetime.start.p0(i64 88, ptr nonnull %3) #15
  %4 = getelementptr inbounds nuw i8, ptr %3, i64 48
  store ptr %4, ptr %3, align 8, !tbaa !3
  %5 = getelementptr inbounds nuw i8, ptr %3, i64 8
  store i64 1, ptr %5, align 8, !tbaa !15
  %6 = getelementptr inbounds nuw i8, ptr %3, i64 16
  %7 = getelementptr inbounds nuw i8, ptr %3, i64 32
  call void @llvm.memset.p0.i64(ptr noundef nonnull align 8 dereferenceable(16) %6, i8 0, i64 16, i1 false)
  store float 1.000000e+00, ptr %7, align 8, !tbaa !16
  %8 = getelementptr inbounds nuw i8, ptr %3, i64 40
  %9 = getelementptr inbounds nuw i8, ptr %3, i64 56
  %10 = getelementptr inbounds nuw i8, ptr %3, i64 72
  %11 = getelementptr inbounds nuw i8, ptr %3, i64 80
  %12 = getelementptr inbounds nuw i8, ptr %1, i64 16
  call void @llvm.memset.p0.i64(ptr noundef nonnull align 8 dereferenceable(48) %8, i8 0, i64 48, i1 false)
  %13 = load ptr, ptr %12, align 8, !tbaa !17
  %.not.i.i.not.i.i = icmp eq ptr %13, null
  br i1 %.not.i.i.not.i.i, label %_ZN4lean11for_each_fnILb1EEC2ERKSt8functionIFbRKNS_4exprEEE.exit, label %14

14:                                               ; preds = %2
  %15 = invoke noundef zeroext i1 %13(ptr noundef nonnull align 8 dereferenceable(32) %9, ptr noundef nonnull align 8 dereferenceable(32) %1, i32 noundef 2)
          to label %16 unwind label %20

16:                                               ; preds = %14
  %17 = getelementptr inbounds nuw i8, ptr %1, i64 24
  %18 = load ptr, ptr %17, align 8, !tbaa !19
  store ptr %18, ptr %11, align 8, !tbaa !19
  %19 = load ptr, ptr %12, align 8, !tbaa !17
  store ptr %19, ptr %10, align 8, !tbaa !17
  br label %_ZN4lean11for_each_fnILb1EEC2ERKSt8functionIFbRKNS_4exprEEE.exit

20:                                               ; preds = %14
  %21 = landingpad { ptr, i32 }
          cleanup
  %22 = load ptr, ptr %10, align 8, !tbaa !17
  %.not.i.i.i = icmp eq ptr %22, null
  br i1 %.not.i.i.i, label %.body.i, label %23

23:                                               ; preds = %20
  %24 = invoke noundef zeroext i1 %22(ptr noundef nonnull align 8 dereferenceable(32) %9, ptr noundef nonnull align 8 dereferenceable(32) %9, i32 noundef 3)
          to label %.body.i unwind label %25

25:                                               ; preds = %23
  %26 = landingpad { ptr, i32 }
          catch ptr null
  %27 = extractvalue { ptr, i32 } %26, 0
  call void @__clang_call_terminate(ptr %27) #16
  unreachable

common.resume:                                    ; preds = %44, %.body.i
  %common.resume.op = phi { ptr, i32 } [ %21, %.body.i ], [ %45, %44 ]
  resume { ptr, i32 } %common.resume.op

.body.i:                                          ; preds = %23, %20
  call void @_ZNSt13unordered_setIP11lean_objectSt4hashIS1_ESt8equal_toIS1_ESaIS1_EED2Ev(ptr noundef nonnull align 8 dereferenceable(88) %3) #15
  br label %common.resume

_ZN4lean11for_each_fnILb1EEC2ERKSt8functionIFbRKNS_4exprEEE.exit: ; preds = %2, %16
  invoke void @_ZN4lean11for_each_fnILb1EE5applyERKNS_4exprE(ptr noundef nonnull align 8 dereferenceable(88) %3, ptr noundef nonnull align 8 dereferenceable(8) %0)
          to label %_ZN4lean11for_each_fnILb1EEclERKNS_4exprE.exit unwind label %44

_ZN4lean11for_each_fnILb1EEclERKNS_4exprE.exit:   ; preds = %_ZN4lean11for_each_fnILb1EEC2ERKSt8functionIFbRKNS_4exprEEE.exit
  %28 = load ptr, ptr %10, align 8, !tbaa !17
  %.not.i.i = icmp eq ptr %28, null
  br i1 %.not.i.i, label %_ZNSt14_Function_baseD2Ev.exit.i, label %29

29:                                               ; preds = %_ZN4lean11for_each_fnILb1EEclERKNS_4exprE.exit
  %30 = invoke noundef zeroext i1 %28(ptr noundef nonnull align 8 dereferenceable(32) %9, ptr noundef nonnull align 8 dereferenceable(32) %9, i32 noundef 3)
          to label %_ZNSt14_Function_baseD2Ev.exit.i unwind label %31

31:                                               ; preds = %29
  %32 = landingpad { ptr, i32 }
          catch ptr null
  %33 = extractvalue { ptr, i32 } %32, 0
  call void @__clang_call_terminate(ptr %33) #16
  unreachable

_ZNSt14_Function_baseD2Ev.exit.i:                 ; preds = %29, %_ZN4lean11for_each_fnILb1EEclERKNS_4exprE.exit
  %34 = load ptr, ptr %6, align 8, !tbaa !21
  %.not5.i.i.i.i.i = icmp eq ptr %34, null
  br i1 %.not5.i.i.i.i.i, label %_ZNSt10_HashtableIP11lean_objectS1_SaIS1_ENSt8__detail9_IdentityESt8equal_toIS1_ESt4hashIS1_ENS3_18_Mod_range_hashingENS3_20_Default_ranged_hashENS3_20_Prime_rehash_policyENS3_17_Hashtable_traitsILb0ELb1ELb1EEEE5clearEv.exit.i.i.i, label %.lr.ph.i.i.i.i.i

.lr.ph.i.i.i.i.i:                                 ; preds = %_ZNSt14_Function_baseD2Ev.exit.i, %.lr.ph.i.i.i.i.i
  %.06.i.i.i.i.i = phi ptr [ %35, %.lr.ph.i.i.i.i.i ], [ %34, %_ZNSt14_Function_baseD2Ev.exit.i ]
  %35 = load ptr, ptr %.06.i.i.i.i.i, align 8, !tbaa !22
  call void @_ZdlPvm(ptr noundef nonnull %.06.i.i.i.i.i, i64 noundef 16) #17
  %.not.i.i.i.i.i = icmp eq ptr %35, null
  br i1 %.not.i.i.i.i.i, label %_ZNSt10_HashtableIP11lean_objectS1_SaIS1_ENSt8__detail9_IdentityESt8equal_toIS1_ESt4hashIS1_ENS3_18_Mod_range_hashingENS3_20_Default_ranged_hashENS3_20_Prime_rehash_policyENS3_17_Hashtable_traitsILb0ELb1ELb1EEEE5clearEv.exit.i.i.i, label %.lr.ph.i.i.i.i.i, !llvm.loop !23

_ZNSt10_HashtableIP11lean_objectS1_SaIS1_ENSt8__detail9_IdentityESt8equal_toIS1_ESt4hashIS1_ENS3_18_Mod_range_hashingENS3_20_Default_ranged_hashENS3_20_Prime_rehash_policyENS3_17_Hashtable_traitsILb0ELb1ELb1EEEE5clearEv.exit.i.i.i: ; preds = %.lr.ph.i.i.i.i.i, %_ZNSt14_Function_baseD2Ev.exit.i
  %36 = load ptr, ptr %3, align 8, !tbaa !3
  %37 = load i64, ptr %5, align 8, !tbaa !15
  %38 = shl i64 %37, 3
  call void @llvm.memset.p0.i64(ptr align 8 %36, i8 0, i64 %38, i1 false)
  call void @llvm.memset.p0.i64(ptr noundef nonnull align 8 dereferenceable(16) %6, i8 0, i64 16, i1 false)
  %39 = load ptr, ptr %3, align 8, !tbaa !3
  %40 = icmp eq ptr %39, %4
  br i1 %40, label %_ZN4lean11for_each_fnILb1EED2Ev.exit, label %41

41:                                               ; preds = %_ZNSt10_HashtableIP11lean_objectS1_SaIS1_ENSt8__detail9_IdentityESt8equal_toIS1_ESt4hashIS1_ENS3_18_Mod_range_hashingENS3_20_Default_ranged_hashENS3_20_Prime_rehash_policyENS3_17_Hashtable_traitsILb0ELb1ELb1EEEE5clearEv.exit.i.i.i
  %42 = load i64, ptr %5, align 8, !tbaa !15
  %43 = shl i64 %42, 3
  call void @_ZdlPvm(ptr noundef %39, i64 noundef %43) #17
  br label %_ZN4lean11for_each_fnILb1EED2Ev.exit

_ZN4lean11for_each_fnILb1EED2Ev.exit:             ; preds = %_ZNSt10_HashtableIP11lean_objectS1_SaIS1_ENSt8__detail9_IdentityESt8equal_toIS1_ESt4hashIS1_ENS3_18_Mod_range_hashingENS3_20_Default_ranged_hashENS3_20_Prime_rehash_policyENS3_17_Hashtable_traitsILb0ELb1ELb1EEEE5clearEv.exit.i.i.i, %41
  call void @llvm.lifetime.end.p0(i64 88, ptr nonnull %3) #15
  ret void

44:                                               ; preds = %_ZN4lean11for_each_fnILb1EEC2ERKSt8functionIFbRKNS_4exprEEE.exit
  %45 = landingpad { ptr, i32 }
          cleanup
  call void @_ZN4lean11for_each_fnILb1EED2Ev(ptr noundef nonnull align 8 dereferenceable(88) %3) #15
  call void @llvm.lifetime.end.p0(i64 88, ptr nonnull %3) #15
  br label %common.resume
}